; Function Attrs: nounwind uwtable
define dso_local range(i32 0, 9206) i32 @try_grow_buf(ptr noundef %0, i32 noundef %1) local_unnamed_addr #0 {
  %3 = getelementptr inbounds nuw i8, ptr %0, i64 16
  %4 = load i32, ptr %3, align 8
  %5 = add i32 %4, 16384
  %6 = zext i32 %5 to i64
  %7 = icmp ugt i32 %1, 16383
  %narrow = select i1 %7, i32 %1, i32 0
  %8 = zext i32 %narrow to i64
  %.0 = add nuw nsw i64 %6, %8
  %9 = getelementptr inbounds nuw i8, ptr %0, i64 24
  %10 = load i8, ptr %9, align 8, !range !8, !noundef !9
  %11 = trunc nuw i8 %10 to i1
  br i1 %11, label %25, label %12

12:                                               ; preds = %2
  %13 = getelementptr inbounds nuw i8, ptr %0, i64 25
  %14 = load i8, ptr %13, align 1, !range !8, !noundef !9
  %15 = trunc nuw i8 %14 to i1
  br i1 %15, label %25, label %16

16:                                               ; preds = %12
  %17 = icmp samesign ugt i64 %.0, 4294901760
  br i1 %17, label %18, label %20

18:                                               ; preds = %16
  %19 = tail call i32 (ptr, ...) @error(ptr noundef nonnull @.str.8, ptr noundef nonnull @__func__.try_grow_buf, i64 noundef %.0, i32 noundef -65536) #14
  br label %25

20:                                               ; preds = %16
  %21 = getelementptr inbounds nuw i8, ptr %0, i64 8
  %22 = tail call ptr @slurm_xrecalloc(ptr noundef nonnull %21, i64 noundef 1, i64 noundef %.0, i1 noundef zeroext true, i1 noundef zeroext true, ptr noundef nonnull @.str.1, i32 noundef 238, ptr noundef nonnull @__func__.try_grow_buf) #14
  %.not = icmp eq ptr %22, null
  br i1 %.not, label %25, label %23

23:                                               ; preds = %20
  %24 = trunc nuw i64 %.0 to i32
  store i32 %24, ptr %3, align 8
  br label %25

25:                                               ; preds = %20, %2, %12, %23, %18
  %.012 = phi i32 [ 9205, %18 ], [ 0, %23 ], [ 22, %12 ], [ 22, %2 ], [ 12, %20 ]
  ret i32 %.012
}